target datalayout = "e-m:e-p270:32:32-p271:32:32-p272:64:64-i64:64-i128:128-f80:128-n8:16:32:64-S128"
target triple = "x86_64-pc-linux-gnu"

; Function Attrs: mustprogress nounwind uwtable
define internal noundef nonnull align 1 dereferenceable(1) ptr @"_ZNSt9_Any_data9_M_accessIZN4pbrt28ReadDecompressedFileContentsENSt7__cxx1112basic_stringIcSt11char_traitsIcESaIcEEEE3$_0EERT_v"(ptr noundef nonnull align 8 dereferenceable(16) %0) #1 align 2 {
  %2 = alloca ptr, align 8
  store ptr %0, ptr %2, align 8, !tbaa !278
  %3 = load ptr, ptr %2, align 8
  %4 = call noundef ptr @_ZNSt9_Any_data9_M_accessEv(ptr noundef nonnull align 8 dereferenceable(16) %3) #3
  ret ptr %4
}

; Function Attrs: noinline noreturn nounwind uwtable
define linkonce_odr hidden void @__clang_call_terminate(ptr noundef %0) #14 comdat {
  %2 = call ptr @__cxa_begin_catch(ptr %0) #3
  call void @_ZSt9terminatev() #21
  unreachable
}

; Function Attrs: mustprogress nounwind uwtable
define internal void @"_ZNSt14_Function_base13_Base_managerIZN4pbrt28ReadDecompressedFileContentsENSt7__cxx1112basic_stringIcSt11char_traitsIcESaIcEEEE3$_0E9_M_createIRKS8_EEvRSt9_Any_dataOT_St17integral_constantIbLb1EE"(ptr noundef nonnull align 8 dereferenceable(16) %0, ptr noundef nonnull align 1 dereferenceable(1) %1) #1 align 2 {
  %3 = alloca ptr, align 8
  %4 = alloca ptr, align 8
  store ptr %0, ptr %3, align 8, !tbaa !278
  store ptr %1, ptr %4, align 8, !tbaa !95
  %5 = load ptr, ptr %3, align 8, !tbaa !278
  %6 = call noundef ptr @_ZNSt9_Any_data9_M_accessEv(ptr noundef nonnull align 8 dereferenceable(16) %5) #3
  ret void
}

; Function Attrs: mustprogress nounwind uwtable
define linkonce_odr dso_local noundef ptr @_ZNKSt9_Any_data9_M_accessEv(ptr noundef nonnull align 8 dereferenceable(16) %0) #1 comdat align 2 {
  %2 = alloca ptr, align 8
  store ptr %0, ptr %2, align 8, !tbaa !278
  %3 = load ptr, ptr %2, align 8
  %4 = getelementptr inbounds [16 x i8], ptr %3, i64 0, i64 0
  ret ptr %4
}

; Function Attrs: mustprogress nounwind uwtable
define internal void @"_ZNSt14_Function_base13_Base_managerIZN4pbrt28ReadDecompressedFileContentsENSt7__cxx1112basic_stringIcSt11char_traitsIcESaIcEEEE3$_0E10_M_destroyERSt9_Any_dataSt17integral_constantIbLb1EE"(ptr noundef nonnull align 8 dereferenceable(16) %0) #1 align 2 {
  %2 = alloca ptr, align 8
  store ptr %0, ptr %2, align 8, !tbaa !278
  %3 = load ptr, ptr %2, align 8, !tbaa !278
  %4 = call noundef nonnull align 1 dereferenceable(1) ptr @"_ZNSt9_Any_data9_M_accessIZN4pbrt28ReadDecompressedFileContentsENSt7__cxx1112basic_stringIcSt11char_traitsIcESaIcEEEE3$_0EERT_v"(ptr noundef nonnull align 8 dereferenceable(16) %3) #3
  ret void
}

; Function Attrs: mustprogress nounwind uwtable
define internal void @"_ZNSt14_Function_base13_Base_managerIZN4pbrt28ReadDecompressedFileContentsENSt7__cxx1112basic_stringIcSt11char_traitsIcESaIcEEEE3$_0E15_M_init_functorIRKS8_EEvRSt9_Any_dataOT_"(ptr noundef nonnull align 8 dereferenceable(16) %0, ptr noundef nonnull align 1 dereferenceable(1) %1) #1 align 2 personality ptr @__gxx_personality_v0 {
  %3 = alloca ptr, align 8
  %4 = alloca ptr, align 8
  store ptr %0, ptr %3, align 8, !tbaa !278
  store ptr %1, ptr %4, align 8, !tbaa !95
  %5 = load ptr, ptr %3, align 8, !tbaa !278
  %6 = load ptr, ptr %4, align 8, !tbaa !95
  invoke void @"_ZNSt14_Function_base13_Base_managerIZN4pbrt28ReadDecompressedFileContentsENSt7__cxx1112basic_stringIcSt11char_traitsIcESaIcEEEE3$_0E9_M_createIRKS8_EEvRSt9_Any_dataOT_St17integral_constantIbLb1EE"(ptr noundef nonnull align 8 dereferenceable(16) %5, ptr noundef nonnull align 1 dereferenceable(1) %6)
          to label %7 unwind label %8

7:                                                ; preds = %2
  ret void

8:                                                ; preds = %2
  %9 = landingpad { ptr, i32 }
          catch ptr null
  %10 = extractvalue { ptr, i32 } %9, 0
  call void @__clang_call_terminate(ptr %10) #21
  unreachable
}

; Function Attrs: mustprogress nounwind uwtable
define internal noundef nonnull align 1 dereferenceable(1) ptr @"_ZNKSt9_Any_data9_M_accessIZN4pbrt28ReadDecompressedFileContentsENSt7__cxx1112basic_stringIcSt11char_traitsIcESaIcEEEE3$_0EERKT_v"(ptr noundef nonnull align 8 dereferenceable(16) %0) #1 align 2 {
  %2 = alloca ptr, align 8
  store ptr %0, ptr %2, align 8, !tbaa !278
  %3 = load ptr, ptr %2, align 8
  %4 = call noundef ptr @_ZNKSt9_Any_data9_M_accessEv(ptr noundef nonnull align 8 dereferenceable(16) %3) #3
  ret ptr %4
}

; Function Attrs: mustprogress nounwind uwtable
define linkonce_odr dso_local noundef ptr @_ZNSt9_Any_data9_M_accessEv(ptr noundef nonnull align 8 dereferenceable(16) %0) #1 comdat align 2 {
  %2 = alloca ptr, align 8
  store ptr %0, ptr %2, align 8, !tbaa !278
  %3 = load ptr, ptr %2, align 8
  %4 = getelementptr inbounds [16 x i8], ptr %3, i64 0, i64 0
  ret ptr %4
}

; Function Attrs: mustprogress uwtable
define internal noundef zeroext i1 @"_ZNSt14_Function_base13_Base_managerIZN4pbrt28ReadDecompressedFileContentsENSt7__cxx1112basic_stringIcSt11char_traitsIcESaIcEEEE3$_0E10_M_managerERSt9_Any_dataRKSA_St18_Manager_operation"(ptr noundef nonnull align 8 dereferenceable(16) %0, ptr noundef nonnull align 8 dereferenceable(16) %1, i32 noundef %2) #4 align 2 {
  %4 = alloca ptr, align 8
  %5 = alloca ptr, align 8
  %6 = alloca i32, align 4
  store ptr %0, ptr %4, align 8, !tbaa !278
  store ptr %1, ptr %5, align 8, !tbaa !278
  store i32 %2, ptr %6, align 4, !tbaa !280
  %7 = load i32, ptr %6, align 4, !tbaa !280
  switch i32 %7, label %22 [
    i32 0, label %8
    i32 1, label %11
    i32 2, label %16
    i32 3, label %20
  ]

8:                                                ; preds = %3
  %9 = load ptr, ptr %4, align 8, !tbaa !278
  %10 = call noundef nonnull align 8 dereferenceable(8) ptr @_ZNSt9_Any_data9_M_accessIPKSt9type_infoEERT_v(ptr noundef nonnull align 8 dereferenceable(16) %9) #3
  store ptr @"_ZTIZN4pbrt28ReadDecompressedFileContentsENSt7__cxx1112basic_stringIcSt11char_traitsIcESaIcEEEE3$_0", ptr %10, align 8, !tbaa !274
  br label %22

11:                                               ; preds = %3
  %12 = load ptr, ptr %5, align 8, !tbaa !278
  %13 = call noundef ptr @"_ZNSt14_Function_base13_Base_managerIZN4pbrt28ReadDecompressedFileContentsENSt7__cxx1112basic_stringIcSt11char_traitsIcESaIcEEEE3$_0E14_M_get_pointerERKSt9_Any_data"(ptr noundef nonnull align 8 dereferenceable(16) %12) #3
  %14 = load ptr, ptr %4, align 8, !tbaa !278
  %15 = call noundef nonnull align 8 dereferenceable(8) ptr @"_ZNSt9_Any_data9_M_accessIPZN4pbrt28ReadDecompressedFileContentsENSt7__cxx1112basic_stringIcSt11char_traitsIcESaIcEEEE3$_0EERT_v"(ptr noundef nonnull align 8 dereferenceable(16) %14) #3
  store ptr %13, ptr %15, align 8, !tbaa !95
  br label %22

16:                                               ; preds = %3
  %17 = load ptr, ptr %4, align 8, !tbaa !278
  %18 = load ptr, ptr %5, align 8, !tbaa !278
  %19 = call noundef ptr @"_ZNSt14_Function_base13_Base_managerIZN4pbrt28ReadDecompressedFileContentsENSt7__cxx1112basic_stringIcSt11char_traitsIcESaIcEEEE3$_0E14_M_get_pointerERKSt9_Any_data"(ptr noundef nonnull align 8 dereferenceable(16) %18) #3
  call void @"_ZNSt14_Function_base13_Base_managerIZN4pbrt28ReadDecompressedFileContentsENSt7__cxx1112basic_stringIcSt11char_traitsIcESaIcEEEE3$_0E15_M_init_functorIRKS8_EEvRSt9_Any_dataOT_"(ptr noundef nonnull align 8 dereferenceable(16) %17, ptr noundef nonnull align 1 dereferenceable(1) %19) #3
  br label %22

20:                                               ; preds = %3
  %21 = load ptr, ptr %4, align 8, !tbaa !278
  call void @"_ZNSt14_Function_base13_Base_managerIZN4pbrt28ReadDecompressedFileContentsENSt7__cxx1112basic_stringIcSt11char_traitsIcESaIcEEEE3$_0E10_M_destroyERSt9_Any_dataSt17integral_constantIbLb1EE"(ptr noundef nonnull align 8 dereferenceable(16) %21)
  br label %22

22:                                               ; preds = %3, %20, %16, %11, %8
  ret i1 false
}

; Function Attrs: mustprogress nounwind uwtable
define internal noundef nonnull align 8 dereferenceable(8) ptr @"_ZNSt9_Any_data9_M_accessIPZN4pbrt28ReadDecompressedFileContentsENSt7__cxx1112basic_stringIcSt11char_traitsIcESaIcEEEE3$_0EERT_v"(ptr noundef nonnull align 8 dereferenceable(16) %0) #1 align 2 {
  %2 = alloca ptr, align 8
  store ptr %0, ptr %2, align 8, !tbaa !278
  %3 = load ptr, ptr %2, align 8
  %4 = call noundef ptr @_ZNSt9_Any_data9_M_accessEv(ptr noundef nonnull align 8 dereferenceable(16) %3) #3
  ret ptr %4
}

; Function Attrs: mustprogress nounwind uwtable
define internal noundef ptr @"_ZNSt14_Function_base13_Base_managerIZN4pbrt28ReadDecompressedFileContentsENSt7__cxx1112basic_stringIcSt11char_traitsIcESaIcEEEE3$_0E14_M_get_pointerERKSt9_Any_data"(ptr noundef nonnull align 8 dereferenceable(16) %0) #1 align 2 {
  %2 = alloca ptr, align 8
  %3 = alloca ptr, align 8
  store ptr %0, ptr %2, align 8, !tbaa !278
  call void @llvm.lifetime.start.p0(i64 8, ptr %3) #3
  %4 = load ptr, ptr %2, align 8, !tbaa !278
  %5 = call noundef nonnull align 1 dereferenceable(1) ptr @"_ZNKSt9_Any_data9_M_accessIZN4pbrt28ReadDecompressedFileContentsENSt7__cxx1112basic_stringIcSt11char_traitsIcESaIcEEEE3$_0EERKT_v"(ptr noundef nonnull align 8 dereferenceable(16) %4) #3
  store ptr %5, ptr %3, align 8, !tbaa !95
  %6 = load ptr, ptr %3, align 8, !tbaa !95
  call void @llvm.lifetime.end.p0(i64 8, ptr %3) #3
  ret ptr %6
}

; Function Attrs: mustprogress nounwind uwtable
define linkonce_odr dso_local noundef nonnull align 8 dereferenceable(8) ptr @_ZNSt9_Any_data9_M_accessIPKSt9type_infoEERT_v(ptr noundef nonnull align 8 dereferenceable(16) %0) #1 comdat align 2 {
  %2 = alloca ptr, align 8
  store ptr %0, ptr %2, align 8, !tbaa !278
  %3 = load ptr, ptr %2, align 8
  %4 = call noundef ptr @_ZNSt9_Any_data9_M_accessEv(ptr noundef nonnull align 8 dereferenceable(16) %3) #3
  ret ptr %4
}

; Function Attrs: mustprogress uwtable
define internal noundef zeroext i1 @"_ZNSt17_Function_handlerIFP23libdeflate_decompressorvEZN4pbrt28ReadDecompressedFileContentsENSt7__cxx1112basic_stringIcSt11char_traitsIcESaIcEEEE3$_0E10_M_managerERSt9_Any_dataRKSC_St18_Manager_operation"(ptr noundef nonnull align 8 dereferenceable(16) %0, ptr noundef nonnull align 8 dereferenceable(16) %1, i32 noundef %2) #4 align 2 {
  %4 = alloca ptr, align 8
  %5 = alloca ptr, align 8
  %6 = alloca i32, align 4
  store ptr %0, ptr %4, align 8, !tbaa !278
  store ptr %1, ptr %5, align 8, !tbaa !278
  store i32 %2, ptr %6, align 4, !tbaa !280
  %7 = load i32, ptr %6, align 4, !tbaa !280
  switch i32 %7, label %16 [
    i32 0, label %8
    i32 1, label %11
  ]

8:                                                ; preds = %3
  %9 = load ptr, ptr %4, align 8, !tbaa !278
  %10 = call noundef nonnull align 8 dereferenceable(8) ptr @_ZNSt9_Any_data9_M_accessIPKSt9type_infoEERT_v(ptr noundef nonnull align 8 dereferenceable(16) %9) #3
  store ptr @"_ZTIZN4pbrt28ReadDecompressedFileContentsENSt7__cxx1112basic_stringIcSt11char_traitsIcESaIcEEEE3$_0", ptr %10, align 8, !tbaa !274
  br label %21

11:                                               ; preds = %3
  %12 = load ptr, ptr %5, align 8, !tbaa !278
  %13 = call noundef ptr @"_ZNSt14_Function_base13_Base_managerIZN4pbrt28ReadDecompressedFileContentsENSt7__cxx1112basic_stringIcSt11char_traitsIcESaIcEEEE3$_0E14_M_get_pointerERKSt9_Any_data"(ptr noundef nonnull align 8 dereferenceable(16) %12) #3
  %14 = load ptr, ptr %4, align 8, !tbaa !278
  %15 = call noundef nonnull align 8 dereferenceable(8) ptr @"_ZNSt9_Any_data9_M_accessIPZN4pbrt28ReadDecompressedFileContentsENSt7__cxx1112basic_stringIcSt11char_traitsIcESaIcEEEE3$_0EERT_v"(ptr noundef nonnull align 8 dereferenceable(16) %14) #3
  store ptr %13, ptr %15, align 8, !tbaa !95
  br label %21

16:                                               ; preds = %3
  %17 = load ptr, ptr %4, align 8, !tbaa !278
  %18 = load ptr, ptr %5, align 8, !tbaa !278
  %19 = load i32, ptr %6, align 4, !tbaa !280
  %20 = call noundef zeroext i1 @"_ZNSt14_Function_base13_Base_managerIZN4pbrt28ReadDecompressedFileContentsENSt7__cxx1112basic_stringIcSt11char_traitsIcESaIcEEEE3$_0E10_M_managerERSt9_Any_dataRKSA_St18_Manager_operation"(ptr noundef nonnull align 8 dereferenceable(16) %17, ptr noundef nonnull align 8 dereferenceable(16) %18, i32 noundef %19)
  br label %21

21:                                               ; preds = %16, %11, %8
  ret i1 false
}